target datalayout = "e-m:e-p270:32:32-p271:32:32-p272:64:64-i64:64-i128:128-f80:128-n8:16:32:64-S128"
target triple = "x86_64-pc-linux-gnu"

%struct._generic_ARKInterp = type { ptr, ptr }
%struct._generic_ARKInterpOps = type { ptr, ptr, ptr, ptr, ptr, ptr, ptr }
%struct._ARKInterpContent_Hermite = type { i32, ptr, ptr, ptr, ptr, double, double, double }
%struct.ARKodeMemRec = type { ptr, double, ptr, i32, i32, double, double, ptr, i32, double, ptr, i32, i32, ptr, ptr, i32, ptr, ptr, i32, ptr, ptr, ptr, ptr, ptr, ptr, ptr, ptr, ptr, ptr, ptr, ptr, ptr, ptr, ptr, i32, ptr, ptr, i32, ptr, i32, ptr, ptr, ptr, ptr, ptr, ptr, ptr, ptr, ptr, ptr, ptr, ptr, ptr, ptr, ptr, ptr, ptr, ptr, ptr, ptr, ptr, ptr, ptr, ptr, ptr, ptr, i32, ptr, ptr, ptr, ptr, ptr, ptr, ptr, i32, ptr, ptr, ptr, i32, ptr, ptr, ptr, ptr, ptr, ptr, ptr, i32, i32, i32, i32, double, double, double, double, double, double, double, double, double, double, i32, ptr, i64, i32, i32, i32, i32, i64, i64, i32, i64, i64, i64, i64, i64, i64, i64, double, double, double, double, double, i32, double, double, i32, i32, i32, i32, i32, i32, i32, i32, ptr, i32, ptr, ptr, ptr, ptr, i32, i32, i32 }

; Function Attrs: nounwind uwtable
define ptr @arkInterpCreate_Hermite(ptr noundef %0, i32 noundef %1) #0 {
  %3 = alloca ptr, align 8
  %4 = alloca ptr, align 8
  %5 = alloca i32, align 4
  %6 = alloca ptr, align 8
  %7 = alloca ptr, align 8
  %8 = alloca ptr, align 8
  %9 = alloca i32, align 4
  store ptr %0, ptr %4, align 8, !tbaa !3
  store i32 %1, ptr %5, align 4, !tbaa !24
  call void @llvm.lifetime.start.p0(i64 8, ptr %6) #7
  call void @llvm.lifetime.start.p0(i64 8, ptr %7) #7
  call void @llvm.lifetime.start.p0(i64 8, ptr %8) #7
  %10 = load i32, ptr %5, align 4, !tbaa !24
  %11 = icmp slt i32 %10, 0
  br i1 %11, label %15, label %12

12:                                               ; preds = %2
  %13 = load i32, ptr %5, align 4, !tbaa !24
  %14 = icmp sgt i32 %13, 5
  br i1 %14, label %15, label %16

15:                                               ; preds = %12, %2
  store ptr null, ptr %3, align 8
  store i32 1, ptr %9, align 4
  br label %94

16:                                               ; preds = %12
  store ptr null, ptr %6, align 8, !tbaa !8
  %17 = call noalias ptr @malloc(i64 noundef 16) #8
  store ptr %17, ptr %6, align 8, !tbaa !8
  %18 = load ptr, ptr %6, align 8, !tbaa !8
  %19 = icmp eq ptr %18, null
  br i1 %19, label %20, label %21

20:                                               ; preds = %16
  store ptr null, ptr %3, align 8
  store i32 1, ptr %9, align 4
  br label %94

21:                                               ; preds = %16
  store ptr null, ptr %8, align 8, !tbaa !32
  %22 = call noalias ptr @malloc(i64 noundef 56) #8
  store ptr %22, ptr %8, align 8, !tbaa !32
  %23 = load ptr, ptr %8, align 8, !tbaa !32
  %24 = icmp eq ptr %23, null
  br i1 %24, label %25, label %27

25:                                               ; preds = %21
  %26 = load ptr, ptr %6, align 8, !tbaa !8
  call void @free(ptr noundef %26) #7
  store ptr null, ptr %3, align 8
  store i32 1, ptr %9, align 4
  br label %94

27:                                               ; preds = %21
  %28 = load ptr, ptr %8, align 8, !tbaa !32
  %29 = getelementptr inbounds nuw %struct._generic_ARKInterpOps, ptr %28, i32 0, i32 0
  store ptr @arkInterpResize_Hermite, ptr %29, align 8, !tbaa !18
  %30 = load ptr, ptr %8, align 8, !tbaa !32
  %31 = getelementptr inbounds nuw %struct._generic_ARKInterpOps, ptr %30, i32 0, i32 1
  store ptr @arkInterpFree_Hermite, ptr %31, align 8, !tbaa !20
  %32 = load ptr, ptr %8, align 8, !tbaa !32
  %33 = getelementptr inbounds nuw %struct._generic_ARKInterpOps, ptr %32, i32 0, i32 2
  store ptr @arkInterpPrintMem_Hermite, ptr %33, align 8, !tbaa !23
  %34 = load ptr, ptr %8, align 8, !tbaa !32
  %35 = getelementptr inbounds nuw %struct._generic_ARKInterpOps, ptr %34, i32 0, i32 3
  store ptr @arkInterpSetDegree_Hermite, ptr %35, align 8, !tbaa !26
  %36 = load ptr, ptr %8, align 8, !tbaa !32
  %37 = getelementptr inbounds nuw %struct._generic_ARKInterpOps, ptr %36, i32 0, i32 4
  store ptr @arkInterpInit_Hermite, ptr %37, align 8, !tbaa !29
  %38 = load ptr, ptr %8, align 8, !tbaa !32
  %39 = getelementptr inbounds nuw %struct._generic_ARKInterpOps, ptr %38, i32 0, i32 5
  store ptr @arkInterpUpdate_Hermite, ptr %39, align 8, !tbaa !30
  %40 = load ptr, ptr %8, align 8, !tbaa !32
  %41 = getelementptr inbounds nuw %struct._generic_ARKInterpOps, ptr %40, i32 0, i32 6
  store ptr @arkInterpEvaluate_Hermite, ptr %41, align 8, !tbaa !31
  store ptr null, ptr %7, align 8, !tbaa !33
  %42 = call noalias ptr @malloc(i64 noundef 64) #8
  store ptr %42, ptr %7, align 8, !tbaa !33
  %43 = load ptr, ptr %7, align 8, !tbaa !33
  %44 = icmp eq ptr %43, null
  br i1 %44, label %45, label %48

45:                                               ; preds = %27
  %46 = load ptr, ptr %8, align 8, !tbaa !32
  call void @free(ptr noundef %46) #7
  %47 = load ptr, ptr %6, align 8, !tbaa !8
  call void @free(ptr noundef %47) #7
  store ptr null, ptr %3, align 8
  store i32 1, ptr %9, align 4
  br label %94

48:                                               ; preds = %27
  %49 = load ptr, ptr %7, align 8, !tbaa !33
  call void @llvm.memset.p0.i64(ptr align 8 %49, i8 0, i64 64, i1 false)
  %50 = load ptr, ptr %8, align 8, !tbaa !32
  %51 = load ptr, ptr %6, align 8, !tbaa !8
  %52 = getelementptr inbounds nuw %struct._generic_ARKInterp, ptr %51, i32 0, i32 1
  store ptr %50, ptr %52, align 8, !tbaa !15
  %53 = load ptr, ptr %7, align 8, !tbaa !33
  %54 = load ptr, ptr %6, align 8, !tbaa !8
  %55 = getelementptr inbounds nuw %struct._generic_ARKInterp, ptr %54, i32 0, i32 0
  store ptr %53, ptr %55, align 8, !tbaa !35
  %56 = load ptr, ptr %7, align 8, !tbaa !33
  %57 = getelementptr inbounds nuw %struct._ARKInterpContent_Hermite, ptr %56, i32 0, i32 1
  store ptr null, ptr %57, align 8, !tbaa !36
  %58 = load ptr, ptr %7, align 8, !tbaa !33
  %59 = getelementptr inbounds nuw %struct._ARKInterpContent_Hermite, ptr %58, i32 0, i32 2
  store ptr null, ptr %59, align 8, !tbaa !38
  %60 = load ptr, ptr %7, align 8, !tbaa !33
  %61 = getelementptr inbounds nuw %struct._ARKInterpContent_Hermite, ptr %60, i32 0, i32 3
  store ptr null, ptr %61, align 8, !tbaa !39
  %62 = load ptr, ptr %7, align 8, !tbaa !33
  %63 = getelementptr inbounds nuw %struct._ARKInterpContent_Hermite, ptr %62, i32 0, i32 4
  store ptr null, ptr %63, align 8, !tbaa !40
  %64 = load i32, ptr %5, align 4, !tbaa !24
  %65 = icmp slt i32 5, %64
  br i1 %65, label %66, label %67

66:                                               ; preds = %48
  br label %69

67:                                               ; preds = %48
  %68 = load i32, ptr %5, align 4, !tbaa !24
  br label %69

69:                                               ; preds = %67, %66
  %70 = phi i32 [ 5, %66 ], [ %68, %67 ]
  %71 = load ptr, ptr %7, align 8, !tbaa !33
  %72 = getelementptr inbounds nuw %struct._ARKInterpContent_Hermite, ptr %71, i32 0, i32 0
  store i32 %70, ptr %72, align 8, !tbaa !41
  %73 = load ptr, ptr %4, align 8, !tbaa !3
  %74 = getelementptr inbounds nuw %struct.ARKodeMemRec, ptr %73, i32 0, i32 115
  %75 = load i64, ptr %74, align 8, !tbaa !42
  %76 = add nsw i64 %75, 2
  store i64 %76, ptr %74, align 8, !tbaa !42
  %77 = load ptr, ptr %4, align 8, !tbaa !3
  %78 = getelementptr inbounds nuw %struct.ARKodeMemRec, ptr %77, i32 0, i32 116
  %79 = load i64, ptr %78, align 8, !tbaa !48
  %80 = add nsw i64 %79, 5
  store i64 %80, ptr %78, align 8, !tbaa !48
  %81 = load ptr, ptr %4, align 8, !tbaa !3
  %82 = getelementptr inbounds nuw %struct.ARKodeMemRec, ptr %81, i32 0, i32 98
  %83 = load double, ptr %82, align 8, !tbaa !49
  %84 = load ptr, ptr %7, align 8, !tbaa !33
  %85 = getelementptr inbounds nuw %struct._ARKInterpContent_Hermite, ptr %84, i32 0, i32 5
  store double %83, ptr %85, align 8, !tbaa !50
  %86 = load ptr, ptr %4, align 8, !tbaa !3
  %87 = getelementptr inbounds nuw %struct.ARKodeMemRec, ptr %86, i32 0, i32 98
  %88 = load double, ptr %87, align 8, !tbaa !49
  %89 = load ptr, ptr %7, align 8, !tbaa !33
  %90 = getelementptr inbounds nuw %struct._ARKInterpContent_Hermite, ptr %89, i32 0, i32 6
  store double %88, ptr %90, align 8, !tbaa !51
  %91 = load ptr, ptr %7, align 8, !tbaa !33
  %92 = getelementptr inbounds nuw %struct._ARKInterpContent_Hermite, ptr %91, i32 0, i32 7
  store double 0.000000e+00, ptr %92, align 8, !tbaa !52
  %93 = load ptr, ptr %6, align 8, !tbaa !8
  store ptr %93, ptr %3, align 8
  store i32 1, ptr %9, align 4
  br label %94

94:                                               ; preds = %69, %45, %25, %20, %15
  call void @llvm.lifetime.end.p0(i64 8, ptr %8) #7
  call void @llvm.lifetime.end.p0(i64 8, ptr %7) #7
  call void @llvm.lifetime.end.p0(i64 8, ptr %6) #7
  %95 = load ptr, ptr %3, align 8
  ret ptr %95
}