; Function Attrs: mustprogress nounwind willreturn uwtable
define noalias noundef ptr @arkInterpCreate_Hermite(ptr noundef captures(none) %0, i32 noundef %1) local_unnamed_addr #1 {
  %or.cond = icmp ugt i32 %1, 5
  br i1 %or.cond, label %31, label %3

3:                                                ; preds = %2
  %4 = tail call noalias dereferenceable_or_null(16) ptr @malloc(i64 noundef 16) #15
  %5 = icmp eq ptr %4, null
  br i1 %5, label %31, label %6

6:                                                ; preds = %3
  %7 = tail call noalias dereferenceable_or_null(56) ptr @malloc(i64 noundef 56) #15
  %8 = icmp eq ptr %7, null
  br i1 %8, label %9, label %10

9:                                                ; preds = %6
  tail call void @free(ptr noundef nonnull %4) #14
  br label %31

10:                                               ; preds = %6
  store ptr @arkInterpResize_Hermite, ptr %7, align 8, !tbaa !9
  %11 = getelementptr inbounds nuw i8, ptr %7, i64 8
  store ptr @arkInterpFree_Hermite, ptr %11, align 8, !tbaa !11
  %12 = getelementptr inbounds nuw i8, ptr %7, i64 16
  store ptr @arkInterpPrintMem_Hermite, ptr %12, align 8, !tbaa !12
  %13 = getelementptr inbounds nuw i8, ptr %7, i64 24
  store ptr @arkInterpSetDegree_Hermite, ptr %13, align 8, !tbaa !13
  %14 = getelementptr inbounds nuw i8, ptr %7, i64 32
  store ptr @arkInterpInit_Hermite, ptr %14, align 8, !tbaa !14
  %15 = getelementptr inbounds nuw i8, ptr %7, i64 40
  store ptr @arkInterpUpdate_Hermite, ptr %15, align 8, !tbaa !15
  %16 = getelementptr inbounds nuw i8, ptr %7, i64 48
  store ptr @arkInterpEvaluate_Hermite, ptr %16, align 8, !tbaa !16
  %calloc = tail call dereferenceable_or_null(64) ptr @calloc(i64 1, i64 64)
  %17 = icmp eq ptr %calloc, null
  br i1 %17, label %18, label %19

18:                                               ; preds = %10
  tail call void @free(ptr noundef nonnull %7) #14
  tail call void @free(ptr noundef nonnull %4) #14
  br label %31

19:                                               ; preds = %10
  %20 = getelementptr inbounds nuw i8, ptr %4, i64 8
  store ptr %7, ptr %20, align 8, !tbaa !3
  store ptr %calloc, ptr %4, align 8, !tbaa !17
  store i32 %1, ptr %calloc, align 8, !tbaa !18
  %21 = getelementptr inbounds nuw i8, ptr %0, i64 872
  %22 = load i64, ptr %21, align 8, !tbaa !23
  %23 = add nsw i64 %22, 2
  store i64 %23, ptr %21, align 8, !tbaa !23
  %24 = getelementptr inbounds nuw i8, ptr %0, i64 880
  %25 = load i64, ptr %24, align 8, !tbaa !31
  %26 = add nsw i64 %25, 5
  store i64 %26, ptr %24, align 8, !tbaa !31
  %27 = getelementptr inbounds nuw i8, ptr %0, i64 752
  %28 = load double, ptr %27, align 8, !tbaa !32
  %29 = getelementptr inbounds nuw i8, ptr %calloc, i64 40
  store double %28, ptr %29, align 8, !tbaa !33
  %30 = getelementptr inbounds nuw i8, ptr %calloc, i64 48
  store double %28, ptr %30, align 8, !tbaa !34
  br label %31

31:                                               ; preds = %3, %2, %19, %18, %9
  %.0 = phi ptr [ null, %9 ], [ null, %18 ], [ %4, %19 ], [ null, %2 ], [ null, %3 ]
  ret ptr %.0
}